; Function Attrs: nounwind uwtable
define dso_local i64 @int4_cash(ptr noundef readonly captures(none) %0) local_unnamed_addr #0 {
  %2 = getelementptr inbounds nuw i8, ptr %0, i64 32
  %3 = load i64, ptr %2, align 8
  %4 = tail call ptr @PGLC_localeconv() #13
  %5 = getelementptr inbounds nuw i8, ptr %4, i64 81
  %6 = load i8, ptr %5, align 1
  %or.cond = icmp ugt i8 %6, 10
  %narrow = select i1 %or.cond, i8 2, i8 %6
  %spec.store.select = sext i8 %narrow to i32
  %7 = icmp sgt i8 %narrow, 0
  br i1 %7, label %.lr.ph, label %._crit_edge

.lr.ph:                                           ; preds = %1, %.lr.ph
  %.013 = phi i32 [ %9, %.lr.ph ], [ 0, %1 ]
  %.01112 = phi i64 [ %8, %.lr.ph ], [ 1, %1 ]
  %8 = mul i64 %.01112, 10
  %9 = add nuw nsw i32 %.013, 1
  %exitcond.not = icmp eq i32 %9, %spec.store.select
  br i1 %exitcond.not, label %._crit_edge, label %.lr.ph, !llvm.loop !20

._crit_edge:                                      ; preds = %.lr.ph, %1
  %.011.lcssa = phi i64 [ 1, %1 ], [ %8, %.lr.ph ]
  %sext = shl i64 %3, 32
  %10 = ashr exact i64 %sext, 32
  %11 = tail call i64 @DirectFunctionCall2Coll(ptr noundef nonnull @int8mul, i32 noundef 0, i64 noundef %10, i64 noundef %.011.lcssa) #13
  ret i64 %11
}